; Function Attrs: nofree norecurse nosync nounwind memory(argmem: read) uwtable
define dso_local i32 @memihash(ptr noundef readonly captures(none) %0, i64 noundef %1) local_unnamed_addr #0 {
  %.not13 = icmp eq i64 %1, 0
  br i1 %.not13, label %._crit_edge, label %.lr.ph

.lr.ph:                                           ; preds = %2, %.lr.ph
  %.0916 = phi ptr [ %4, %.lr.ph ], [ %0, %2 ]
  %.01015 = phi i32 [ %10, %.lr.ph ], [ -2128831035, %2 ]
  %.01114 = phi i64 [ %3, %.lr.ph ], [ %1, %2 ]
  %3 = add i64 %.01114, -1
  %4 = getelementptr inbounds nuw i8, ptr %.0916, i64 1
  %5 = load i8, ptr %.0916, align 1, !tbaa !4
  %6 = zext i8 %5 to i32
  %7 = add i8 %5, -97
  %or.cond = icmp ult i8 %7, 26
  %8 = add nsw i32 %6, -32
  %spec.select = select i1 %or.cond, i32 %8, i32 %6
  %9 = mul i32 %.01015, 16777619
  %10 = xor i32 %spec.select, %9
  %.not = icmp eq i64 %3, 0
  br i1 %.not, label %._crit_edge, label %.lr.ph, !llvm.loop !11

._crit_edge:                                      ; preds = %.lr.ph, %2
  %.010.lcssa = phi i32 [ -2128831035, %2 ], [ %10, %.lr.ph ]
  ret i32 %.010.lcssa
}